; ModuleID = '39/1287.c'
source_filename = "39/1287.c"
target datalayout = "e-m:e-p270:32:32-p271:32:32-p272:64:64-i64:64-f80:128-n8:16:32:64-S128"
target triple = "x86_64-pc-linux-gnu"

%struct.student = type { [21 x i8], i32, i32, i8, i8, i32, i32 }

@.str = private unnamed_addr constant [3 x i8] c"%d\00", align 1
@.str.1 = private unnamed_addr constant [15 x i8] c"%s%d%d %c %c%d\00", align 1
@.str.2 = private unnamed_addr constant [10 x i8] c"%s\0A%d\0A%d\0A\00", align 1

; Function Attrs: noinline nounwind uwtable
define dso_local i32 @main(i32 %0, i8** %1) #0 {
  %3 = alloca i32, align 4
  %4 = alloca i32, align 4
  %5 = alloca i8**, align 8
  %6 = alloca i32, align 4
  %7 = alloca i32, align 4
  %8 = alloca i32, align 4
  %9 = alloca i32, align 4
  %10 = alloca i32, align 4
  %11 = alloca [100 x %struct.student], align 16
  store i32 0, i32* %3, align 4
  store i32 %0, i32* %4, align 4
  store i8** %1, i8*** %5, align 8
  store i32 0, i32* %8, align 4
  store i32 0, i32* %9, align 4
  %12 = call i32 (i8*, ...) @__isoc99_scanf(i8* getelementptr inbounds ([3 x i8], [3 x i8]* @.str, i64 0, i64 0), i32* %6)
  store i32 0, i32* %7, align 4
  br label %13

13:                                               ; preds = %155, %2
  %14 = load i32, i32* %7, align 4
  %15 = load i32, i32* %6, align 4
  %16 = icmp slt i32 %14, %15
  br i1 %16, label %17, label %158

17:                                               ; preds = %13
  %18 = load i32, i32* %7, align 4
  %19 = sext i32 %18 to i64
  %20 = getelementptr inbounds [100 x %struct.student], [100 x %struct.student]* %11, i64 0, i64 %19
  %21 = getelementptr inbounds %struct.student, %struct.student* %20, i32 0, i32 6
  store i32 0, i32* %21, align 4
  %22 = load i32, i32* %7, align 4
  %23 = sext i32 %22 to i64
  %24 = getelementptr inbounds [100 x %struct.student], [100 x %struct.student]* %11, i64 0, i64 %23
  %25 = getelementptr inbounds %struct.student, %struct.student* %24, i32 0, i32 0
  %26 = load i32, i32* %7, align 4
  %27 = sext i32 %26 to i64
  %28 = getelementptr inbounds [100 x %struct.student], [100 x %struct.student]* %11, i64 0, i64 %27
  %29 = getelementptr inbounds %struct.student, %struct.student* %28, i32 0, i32 1
  %30 = load i32, i32* %7, align 4
  %31 = sext i32 %30 to i64
  %32 = getelementptr inbounds [100 x %struct.student], [100 x %struct.student]* %11, i64 0, i64 %31
  %33 = getelementptr inbounds %struct.student, %struct.student* %32, i32 0, i32 2
  %34 = load i32, i32* %7, align 4
  %35 = sext i32 %34 to i64
  %36 = getelementptr inbounds [100 x %struct.student], [100 x %struct.student]* %11, i64 0, i64 %35
  %37 = getelementptr inbounds %struct.student, %struct.student* %36, i32 0, i32 3
  %38 = load i32, i32* %7, align 4
  %39 = sext i32 %38 to i64
  %40 = getelementptr inbounds [100 x %struct.student], [100 x %struct.student]* %11, i64 0, i64 %39
  %41 = getelementptr inbounds %struct.student, %struct.student* %40, i32 0, i32 4
  %42 = load i32, i32* %7, align 4
  %43 = sext i32 %42 to i64
  %44 = getelementptr inbounds [100 x %struct.student], [100 x %struct.student]* %11, i64 0, i64 %43
  %45 = getelementptr inbounds %struct.student, %struct.student* %44, i32 0, i32 5
  %46 = call i32 (i8*, ...) @__isoc99_scanf(i8* getelementptr inbounds ([15 x i8], [15 x i8]* @.str.1, i64 0, i64 0), [21 x i8]* %25, i32* %29, i32* %33, i8* %37, i8* %41, i32* %45)
  %47 = load i32, i32* %7, align 4
  %48 = sext i32 %47 to i64
  %49 = getelementptr inbounds [100 x %struct.student], [100 x %struct.student]* %11, i64 0, i64 %48
  %50 = getelementptr inbounds %struct.student, %struct.student* %49, i32 0, i32 1
  %51 = load i32, i32* %50, align 4
  %52 = icmp sgt i32 %51, 80
  br i1 %52, label %53, label %67

53:                                               ; preds = %17
  %54 = load i32, i32* %7, align 4
  %55 = sext i32 %54 to i64
  %56 = getelementptr inbounds [100 x %struct.student], [100 x %struct.student]* %11, i64 0, i64 %55
  %57 = getelementptr inbounds %struct.student, %struct.student* %56, i32 0, i32 5
  %58 = load i32, i32* %57, align 4
  %59 = icmp sgt i32 %58, 0
  br i1 %59, label %60, label %67

60:                                               ; preds = %53
  %61 = load i32, i32* %7, align 4
  %62 = sext i32 %61 to i64
  %63 = getelementptr inbounds [100 x %struct.student], [100 x %struct.student]* %11, i64 0, i64 %62
  %64 = getelementptr inbounds %struct.student, %struct.student* %63, i32 0, i32 6
  store i32 8000, i32* %64, align 4
  %65 = load i32, i32* %9, align 4
  %66 = add nsw i32 %65, 8000
  store i32 %66, i32* %9, align 4
  br label %67

67:                                               ; preds = %60, %53, %17
  %68 = load i32, i32* %7, align 4
  %69 = sext i32 %68 to i64
  %70 = getelementptr inbounds [100 x %struct.student], [100 x %struct.student]* %11, i64 0, i64 %69
  %71 = getelementptr inbounds %struct.student, %struct.student* %70, i32 0, i32 1
  %72 = load i32, i32* %71, align 4
  %73 = icmp sgt i32 %72, 85
  br i1 %73, label %74, label %90

74:                                               ; preds = %67
  %75 = load i32, i32* %7, align 4
  %76 = sext i32 %75 to i64
  %77 = getelementptr inbounds [100 x %struct.student], [100 x %struct.student]* %11, i64 0, i64 %76
  %78 = getelementptr inbounds %struct.student, %struct.student* %77, i32 0, i32 2
  %79 = load i32, i32* %78, align 4
  %80 = icmp sgt i32 %79, 80
  br i1 %80, label %81, label %90

81:                                               ; preds = %74
  %82 = load i32, i32* %7, align 4
  %83 = sext i32 %82 to i64
  %84 = getelementptr inbounds [100 x %struct.student], [100 x %struct.student]* %11, i64 0, i64 %83
  %85 = getelementptr inbounds %struct.student, %struct.student* %84, i32 0, i32 6
  %86 = load i32, i32* %85, align 4
  %87 = add nsw i32 %86, 4000
  store i32 %87, i32* %85, align 4
  %88 = load i32, i32* %9, align 4
  %89 = add nsw i32 %88, 4000
  store i32 %89, i32* %9, align 4
  br label %90

90:                                               ; preds = %81, %74, %67
  %91 = load i32, i32* %7, align 4
  %92 = sext i32 %91 to i64
  %93 = getelementptr inbounds [100 x %struct.student], [100 x %struct.student]* %11, i64 0, i64 %92
  %94 = getelementptr inbounds %struct.student, %struct.student* %93, i32 0, i32 1
  %95 = load i32, i32* %94, align 4
  %96 = icmp sgt i32 %95, 90
  br i1 %96, label %97, label %106

97:                                               ; preds = %90
  %98 = load i32, i32* %7, align 4
  %99 = sext i32 %98 to i64
  %100 = getelementptr inbounds [100 x %struct.student], [100 x %struct.student]* %11, i64 0, i64 %99
  %101 = getelementptr inbounds %struct.student, %struct.student* %100, i32 0, i32 6
  %102 = load i32, i32* %101, align 4
  %103 = add nsw i32 %102, 2000
  store i32 %103, i32* %101, align 4
  %104 = load i32, i32* %9, align 4
  %105 = add nsw i32 %104, 2000
  store i32 %105, i32* %9, align 4
  br label %106

106:                                              ; preds = %97, %90
  %107 = load i32, i32* %7, align 4
  %108 = sext i32 %107 to i64
  %109 = getelementptr inbounds [100 x %struct.student], [100 x %struct.student]* %11, i64 0, i64 %108
  %110 = getelementptr inbounds %struct.student, %struct.student* %109, i32 0, i32 1
  %111 = load i32, i32* %110, align 4
  %112 = icmp sgt i32 %111, 85
  br i1 %112, label %113, label %130

113:                                              ; preds = %106
  %114 = load i32, i32* %7, align 4
  %115 = sext i32 %114 to i64
  %116 = getelementptr inbounds [100 x %struct.student], [100 x %struct.student]* %11, i64 0, i64 %115
  %117 = getelementptr inbounds %struct.student, %struct.student* %116, i32 0, i32 4
  %118 = load i8, i8* %117, align 1
  %119 = sext i8 %118 to i32
  %120 = icmp eq i32 %119, 89
  br i1 %120, label %121, label %130

121:                                              ; preds = %113
  %122 = load i32, i32* %7, align 4
  %123 = sext i32 %122 to i64
  %124 = getelementptr inbounds [100 x %struct.student], [100 x %struct.student]* %11, i64 0, i64 %123
  %125 = getelementptr inbounds %struct.student, %struct.student* %124, i32 0, i32 6
  %126 = load i32, i32* %125, align 4
  %127 = add nsw i32 %126, 1000
  store i32 %127, i32* %125, align 4
  %128 = load i32, i32* %9, align 4
  %129 = add nsw i32 %128, 1000
  store i32 %129, i32* %9, align 4
  br label %130

130:                                              ; preds = %121, %113, %106
  %131 = load i32, i32* %7, align 4
  %132 = sext i32 %131 to i64
  %133 = getelementptr inbounds [100 x %struct.student], [100 x %struct.student]* %11, i64 0, i64 %132
  %134 = getelementptr inbounds %struct.student, %struct.student* %133, i32 0, i32 2
  %135 = load i32, i32* %134, align 4
  %136 = icmp sgt i32 %135, 80
  br i1 %136, label %137, label %154

137:                                              ; preds = %130
  %138 = load i32, i32* %7, align 4
  %139 = sext i32 %138 to i64
  %140 = getelementptr inbounds [100 x %struct.student], [100 x %struct.student]* %11, i64 0, i64 %139
  %141 = getelementptr inbounds %struct.student, %struct.student* %140, i32 0, i32 3
  %142 = load i8, i8* %141, align 4
  %143 = sext i8 %142 to i32
  %144 = icmp eq i32 %143, 89
  br i1 %144, label %145, label %154

145:                                              ; preds = %137
  %146 = load i32, i32* %7, align 4
  %147 = sext i32 %146 to i64
  %148 = getelementptr inbounds [100 x %struct.student], [100 x %struct.student]* %11, i64 0, i64 %147
  %149 = getelementptr inbounds %struct.student, %struct.student* %148, i32 0, i32 6
  %150 = load i32, i32* %149, align 4
  %151 = add nsw i32 %150, 850
  store i32 %151, i32* %149, align 4
  %152 = load i32, i32* %9, align 4
  %153 = add nsw i32 %152, 850
  store i32 %153, i32* %9, align 4
  br label %154

154:                                              ; preds = %145, %137, %130
  br label %155

155:                                              ; preds = %154
  %156 = load i32, i32* %7, align 4
  %157 = add nsw i32 %156, 1
  store i32 %157, i32* %7, align 4
  br label %13

158:                                              ; preds = %13
  %159 = getelementptr inbounds [100 x %struct.student], [100 x %struct.student]* %11, i64 0, i64 0
  %160 = getelementptr inbounds %struct.student, %struct.student* %159, i32 0, i32 6
  %161 = load i32, i32* %160, align 8
  store i32 %161, i32* %10, align 4
  store i32 0, i32* %7, align 4
  br label %162

162:                                              ; preds = %182, %158
  %163 = load i32, i32* %7, align 4
  %164 = load i32, i32* %6, align 4
  %165 = icmp slt i32 %163, %164
  br i1 %165, label %166, label %185

166:                                              ; preds = %162
  %167 = load i32, i32* %10, align 4
  %168 = load i32, i32* %7, align 4
  %169 = sext i32 %168 to i64
  %170 = getelementptr inbounds [100 x %struct.student], [100 x %struct.student]* %11, i64 0, i64 %169
  %171 = getelementptr inbounds %struct.student, %struct.student* %170, i32 0, i32 6
  %172 = load i32, i32* %171, align 4
  %173 = icmp slt i32 %167, %172
  br i1 %173, label %174, label %181

174:                                              ; preds = %166
  %175 = load i32, i32* %7, align 4
  %176 = sext i32 %175 to i64
  %177 = getelementptr inbounds [100 x %struct.student], [100 x %struct.student]* %11, i64 0, i64 %176
  %178 = getelementptr inbounds %struct.student, %struct.student* %177, i32 0, i32 6
  %179 = load i32, i32* %178, align 4
  store i32 %179, i32* %10, align 4
  %180 = load i32, i32* %7, align 4
  store i32 %180, i32* %8, align 4
  br label %181

181:                                              ; preds = %174, %166
  br label %182

182:                                              ; preds = %181
  %183 = load i32, i32* %7, align 4
  %184 = add nsw i32 %183, 1
  store i32 %184, i32* %7, align 4
  br label %162

185:                                              ; preds = %162
  %186 = load i32, i32* %8, align 4
  %187 = sext i32 %186 to i64
  %188 = getelementptr inbounds [100 x %struct.student], [100 x %struct.student]* %11, i64 0, i64 %187
  %189 = getelementptr inbounds %struct.student, %struct.student* %188, i32 0, i32 0
  %190 = getelementptr inbounds [21 x i8], [21 x i8]* %189, i64 0, i64 0
  %191 = load i32, i32* %8, align 4
  %192 = sext i32 %191 to i64
  %193 = getelementptr inbounds [100 x %struct.student], [100 x %struct.student]* %11, i64 0, i64 %192
  %194 = getelementptr inbounds %struct.student, %struct.student* %193, i32 0, i32 6
  %195 = load i32, i32* %194, align 4
  %196 = load i32, i32* %9, align 4
  %197 = call i32 (i8*, ...) @printf(i8* getelementptr inbounds ([10 x i8], [10 x i8]* @.str.2, i64 0, i64 0), i8* %190, i32 %195, i32 %196)
  ret i32 0
}

declare dso_local i32 @__isoc99_scanf(i8*, ...) #1

declare dso_local i32 @printf(i8*, ...) #1


!llvm.module.flags = !{!0}
!llvm.ident = !{!1}

!0 = !{i32 1, !"wchar_size", i32 4}
!1 = !{!"clang version 10.0.0-4ubuntu1 "}
